; Function Attrs: nounwind uwtable
define dso_local void @protocol_v2_advertise_capabilities(ptr noundef %0) local_unnamed_addr #0 {
  %2 = alloca %struct.strbuf, align 8
  %3 = alloca %struct.strbuf, align 8
  call void @llvm.lifetime.start.p0(i64 24, ptr nonnull %2) #7
  call void @llvm.memcpy.p0.p0.i64(ptr noundef nonnull align 8 dereferenceable(24) %2, ptr noundef nonnull align 8 dereferenceable(24) @__const.protocol_v2_advertise_capabilities.value, i64 24, i1 false)
  call void @llvm.lifetime.start.p0(i64 24, ptr nonnull %3) #7
  call void @llvm.memcpy.p0.p0.i64(ptr noundef nonnull align 8 dereferenceable(24) %3, ptr noundef nonnull align 8 dereferenceable(24) @__const.protocol_v2_advertise_capabilities.value, i64 24, i1 false)
  tail call void (i32, ptr, ...) @packet_write_fmt(i32 noundef 1, ptr noundef nonnull @.str) #7
  %4 = getelementptr inbounds nuw i8, ptr %3, i64 8
  %5 = getelementptr inbounds nuw i8, ptr %2, i64 8
  %6 = getelementptr inbounds nuw i8, ptr %2, i64 16
  %7 = getelementptr inbounds nuw i8, ptr %3, i64 16
  br label %9

8:                                                ; preds = %strbuf_setlen.exit17
  call void @packet_flush(i32 noundef 1) #7
  call void @strbuf_release(ptr noundef nonnull %2) #7
  call void @strbuf_release(ptr noundef nonnull %3) #7
  call void @llvm.lifetime.end.p0(i64 24, ptr nonnull %3) #7
  call void @llvm.lifetime.end.p0(i64 24, ptr nonnull %2) #7
  ret void

9:                                                ; preds = %1, %strbuf_setlen.exit17
  %.018 = phi i64 [ 0, %1 ], [ %43, %strbuf_setlen.exit17 ]
  %10 = getelementptr inbounds nuw [8 x %struct.protocol_capability], ptr @capabilities, i64 0, i64 %.018
  %11 = getelementptr inbounds nuw i8, ptr %10, i64 8
  %12 = load ptr, ptr %11, align 8, !tbaa !4
  %13 = call i32 %12(ptr noundef %0, ptr noundef nonnull %3) #7
  %.not = icmp eq i32 %13, 0
  br i1 %.not, label %38, label %14

14:                                               ; preds = %9
  %15 = load ptr, ptr %10, align 16, !tbaa !10
  %16 = call i64 @strlen(ptr noundef nonnull dereferenceable(1) %15) #8
  call void @strbuf_add(ptr noundef nonnull %2, ptr noundef nonnull %15, i64 noundef %16) #7
  %17 = load i64, ptr %4, align 8, !tbaa !11
  %.not5 = icmp eq i64 %17, 0
  br i1 %.not5, label %27, label %18

18:                                               ; preds = %14
  %19 = load i64, ptr %2, align 8, !tbaa !14
  %.not.i.i = icmp eq i64 %19, 0
  br i1 %.not.i.i, label %strbuf_avail.exit.thread.i, label %strbuf_avail.exit.i

strbuf_avail.exit.i:                              ; preds = %18
  %20 = load i64, ptr %5, align 8, !tbaa !11
  %.neg.i = add i64 %20, 1
  %.not.i = icmp eq i64 %19, %.neg.i
  br i1 %.not.i, label %strbuf_avail.exit.thread.i, label %strbuf_addch.exit

strbuf_avail.exit.thread.i:                       ; preds = %strbuf_avail.exit.i, %18
  call void @strbuf_grow(ptr noundef nonnull %2, i64 noundef 1) #7
  %.pre.i = load i64, ptr %5, align 8, !tbaa !11
  %.pre7.i = add i64 %.pre.i, 1
  br label %strbuf_addch.exit

strbuf_addch.exit:                                ; preds = %strbuf_avail.exit.i, %strbuf_avail.exit.thread.i
  %.pre-phi.i = phi i64 [ %.pre7.i, %strbuf_avail.exit.thread.i ], [ %.neg.i, %strbuf_avail.exit.i ]
  %21 = phi i64 [ %.pre.i, %strbuf_avail.exit.thread.i ], [ %20, %strbuf_avail.exit.i ]
  %22 = load ptr, ptr %6, align 8, !tbaa !15
  store i64 %.pre-phi.i, ptr %5, align 8, !tbaa !11
  %23 = getelementptr inbounds nuw i8, ptr %22, i64 %21
  store i8 61, ptr %23, align 1, !tbaa !16
  %24 = load ptr, ptr %6, align 8, !tbaa !15
  %25 = load i64, ptr %5, align 8, !tbaa !11
  %26 = getelementptr inbounds nuw i8, ptr %24, i64 %25
  store i8 0, ptr %26, align 1, !tbaa !16
  call void @strbuf_addbuf(ptr noundef nonnull %2, ptr noundef nonnull %3) #7
  br label %27

27:                                               ; preds = %strbuf_addch.exit, %14
  %28 = load i64, ptr %2, align 8, !tbaa !14
  %.not.i.i6 = icmp eq i64 %28, 0
  br i1 %.not.i.i6, label %strbuf_avail.exit.thread.i11, label %strbuf_avail.exit.i7

strbuf_avail.exit.i7:                             ; preds = %27
  %29 = load i64, ptr %5, align 8, !tbaa !11
  %.neg.i8 = add i64 %29, 1
  %.not.i9 = icmp eq i64 %28, %.neg.i8
  br i1 %.not.i9, label %strbuf_avail.exit.thread.i11, label %strbuf_addch.exit15

strbuf_avail.exit.thread.i11:                     ; preds = %strbuf_avail.exit.i7, %27
  call void @strbuf_grow(ptr noundef nonnull %2, i64 noundef 1) #7
  %.pre.i13 = load i64, ptr %5, align 8, !tbaa !11
  %.pre7.i14 = add i64 %.pre.i13, 1
  br label %strbuf_addch.exit15

strbuf_addch.exit15:                              ; preds = %strbuf_avail.exit.i7, %strbuf_avail.exit.thread.i11
  %.pre-phi.i10 = phi i64 [ %.pre7.i14, %strbuf_avail.exit.thread.i11 ], [ %.neg.i8, %strbuf_avail.exit.i7 ]
  %30 = phi i64 [ %.pre.i13, %strbuf_avail.exit.thread.i11 ], [ %29, %strbuf_avail.exit.i7 ]
  %31 = load ptr, ptr %6, align 8, !tbaa !15
  store i64 %.pre-phi.i10, ptr %5, align 8, !tbaa !11
  %32 = getelementptr inbounds nuw i8, ptr %31, i64 %30
  store i8 10, ptr %32, align 1, !tbaa !16
  %33 = load ptr, ptr %6, align 8, !tbaa !15
  %34 = load i64, ptr %5, align 8, !tbaa !11
  %35 = getelementptr inbounds nuw i8, ptr %33, i64 %34
  store i8 0, ptr %35, align 1, !tbaa !16
  %36 = load ptr, ptr %6, align 8, !tbaa !15
  %37 = load i64, ptr %5, align 8, !tbaa !11
  call void @packet_write(i32 noundef 1, ptr noundef %36, i64 noundef %37) #7
  br label %38

38:                                               ; preds = %strbuf_addch.exit15, %9
  store i64 0, ptr %5, align 8, !tbaa !11
  %39 = load ptr, ptr %6, align 8, !tbaa !15
  %.not9.i = icmp eq ptr %39, @strbuf_slopbuf
  br i1 %.not9.i, label %strbuf_setlen.exit, label %40

40:                                               ; preds = %38
  store i8 0, ptr %39, align 1, !tbaa !16
  br label %strbuf_setlen.exit

strbuf_setlen.exit:                               ; preds = %38, %40
  store i64 0, ptr %4, align 8, !tbaa !11
  %41 = load ptr, ptr %7, align 8, !tbaa !15
  %.not9.i16 = icmp eq ptr %41, @strbuf_slopbuf
  br i1 %.not9.i16, label %strbuf_setlen.exit17, label %42

42:                                               ; preds = %strbuf_setlen.exit
  store i8 0, ptr %41, align 1, !tbaa !16
  br label %strbuf_setlen.exit17

strbuf_setlen.exit17:                             ; preds = %strbuf_setlen.exit, %42
  %43 = add nuw nsw i64 %.018, 1
  %exitcond.not = icmp eq i64 %43, 8
  br i1 %exitcond.not, label %8, label %9, !llvm.loop !17
}